; ModuleID = '42/470.c'
source_filename = "42/470.c"
target datalayout = "e-m:e-p270:32:32-p271:32:32-p272:64:64-i64:64-f80:128-n8:16:32:64-S128"
target triple = "x86_64-pc-linux-gnu"

@.str = private unnamed_addr constant [4 x i8] c"%d\0A\00", align 1
@.str.1 = private unnamed_addr constant [4 x i8] c"%d \00", align 1
@.str.2 = private unnamed_addr constant [3 x i8] c"%d\00", align 1
@.str.3 = private unnamed_addr constant [4 x i8] c" %d\00", align 1

; Function Attrs: noinline nounwind uwtable
define dso_local void @main() #0 {
  %1 = alloca i32, align 4
  %2 = alloca i32, align 4
  %3 = alloca i32, align 4
  %4 = alloca i32, align 4
  %5 = alloca [100000 x i32], align 16
  %6 = call i32 (i8*, ...) @__isoc99_scanf(i8* getelementptr inbounds ([4 x i8], [4 x i8]* @.str, i64 0, i64 0), i32* %1)
  store i32 0, i32* %2, align 4
  br label %7

7:                                                ; preds = %17, %0
  %8 = load i32, i32* %2, align 4
  %9 = load i32, i32* %1, align 4
  %10 = sub nsw i32 %9, 1
  %11 = icmp slt i32 %8, %10
  br i1 %11, label %12, label %20

12:                                               ; preds = %7
  %13 = load i32, i32* %2, align 4
  %14 = sext i32 %13 to i64
  %15 = getelementptr inbounds [100000 x i32], [100000 x i32]* %5, i64 0, i64 %14
  %16 = call i32 (i8*, ...) @__isoc99_scanf(i8* getelementptr inbounds ([4 x i8], [4 x i8]* @.str.1, i64 0, i64 0), i32* %15)
  br label %17

17:                                               ; preds = %12
  %18 = load i32, i32* %2, align 4
  %19 = add nsw i32 %18, 1
  store i32 %19, i32* %2, align 4
  br label %7

20:                                               ; preds = %7
  %21 = load i32, i32* %1, align 4
  %22 = sub nsw i32 %21, 1
  %23 = sext i32 %22 to i64
  %24 = getelementptr inbounds [100000 x i32], [100000 x i32]* %5, i64 0, i64 %23
  %25 = call i32 (i8*, ...) @__isoc99_scanf(i8* getelementptr inbounds ([3 x i8], [3 x i8]* @.str.2, i64 0, i64 0), i32* %24)
  %26 = call i32 @putchar(i32 10)
  %27 = call i32 (i8*, ...) @__isoc99_scanf(i8* getelementptr inbounds ([3 x i8], [3 x i8]* @.str.2, i64 0, i64 0), i32* %3)
  store i32 0, i32* %2, align 4
  br label %28

28:                                               ; preds = %63, %20
  %29 = load i32, i32* %2, align 4
  %30 = load i32, i32* %1, align 4
  %31 = icmp slt i32 %29, %30
  br i1 %31, label %32, label %66

32:                                               ; preds = %28
  %33 = load i32, i32* %2, align 4
  %34 = sext i32 %33 to i64
  %35 = getelementptr inbounds [100000 x i32], [100000 x i32]* %5, i64 0, i64 %34
  %36 = load i32, i32* %35, align 4
  %37 = load i32, i32* %3, align 4
  %38 = icmp eq i32 %36, %37
  br i1 %38, label %39, label %62

39:                                               ; preds = %32
  %40 = load i32, i32* %2, align 4
  store i32 %40, i32* %4, align 4
  br label %41

41:                                               ; preds = %54, %39
  %42 = load i32, i32* %4, align 4
  %43 = load i32, i32* %1, align 4
  %44 = icmp slt i32 %42, %43
  br i1 %44, label %45, label %57

45:                                               ; preds = %41
  %46 = load i32, i32* %4, align 4
  %47 = add nsw i32 %46, 1
  %48 = sext i32 %47 to i64
  %49 = getelementptr inbounds [100000 x i32], [100000 x i32]* %5, i64 0, i64 %48
  %50 = load i32, i32* %49, align 4
  %51 = load i32, i32* %4, align 4
  %52 = sext i32 %51 to i64
  %53 = getelementptr inbounds [100000 x i32], [100000 x i32]* %5, i64 0, i64 %52
  store i32 %50, i32* %53, align 4
  br label %54

54:                                               ; preds = %45
  %55 = load i32, i32* %4, align 4
  %56 = add nsw i32 %55, 1
  store i32 %56, i32* %4, align 4
  br label %41

57:                                               ; preds = %41
  %58 = load i32, i32* %2, align 4
  %59 = add nsw i32 %58, -1
  store i32 %59, i32* %2, align 4
  %60 = load i32, i32* %1, align 4
  %61 = sub nsw i32 %60, 1
  store i32 %61, i32* %1, align 4
  br label %62

62:                                               ; preds = %57, %32
  br label %63

63:                                               ; preds = %62
  %64 = load i32, i32* %2, align 4
  %65 = add nsw i32 %64, 1
  store i32 %65, i32* %2, align 4
  br label %28

66:                                               ; preds = %28
  %67 = getelementptr inbounds [100000 x i32], [100000 x i32]* %5, i64 0, i64 0
  %68 = load i32, i32* %67, align 16
  %69 = call i32 (i8*, ...) @printf(i8* getelementptr inbounds ([3 x i8], [3 x i8]* @.str.2, i64 0, i64 0), i32 %68)
  store i32 1, i32* %2, align 4
  br label %70

70:                                               ; preds = %80, %66
  %71 = load i32, i32* %2, align 4
  %72 = load i32, i32* %1, align 4
  %73 = icmp slt i32 %71, %72
  br i1 %73, label %74, label %83

74:                                               ; preds = %70
  %75 = load i32, i32* %2, align 4
  %76 = sext i32 %75 to i64
  %77 = getelementptr inbounds [100000 x i32], [100000 x i32]* %5, i64 0, i64 %76
  %78 = load i32, i32* %77, align 4
  %79 = call i32 (i8*, ...) @printf(i8* getelementptr inbounds ([4 x i8], [4 x i8]* @.str.3, i64 0, i64 0), i32 %78)
  br label %80

80:                                               ; preds = %74
  %81 = load i32, i32* %2, align 4
  %82 = add nsw i32 %81, 1
  store i32 %82, i32* %2, align 4
  br label %70

83:                                               ; preds = %70
  ret void
}

declare dso_local i32 @__isoc99_scanf(i8*, ...) #1

declare dso_local i32 @putchar(i32) #1

declare dso_local i32 @printf(i8*, ...) #1


!llvm.module.flags = !{!0}
!llvm.ident = !{!1}

!0 = !{i32 1, !"wchar_size", i32 4}
!1 = !{!"clang version 10.0.0-4ubuntu1 "}
